target datalayout = "e-m:e-p270:32:32-p271:32:32-p272:64:64-i64:64-i128:128-f80:128-n8:16:32:64-S128"
target triple = "x86_64-pc-linux-gnu"

%struct.rb_symbols_t = type { i32, ptr, i64, i64 }
%struct.RSymbol = type { %struct.RBasic, i64, i64, i64 }
%struct.RBasic = type { i64, i64 }

@ruby_global_symbols = hidden global { i32, [4 x i8], ptr, i64, i64 } { i32 246, [4 x i8] zeroinitializer, ptr null, i64 0, i64 0 }, align 8
@.str.5 = private unnamed_addr constant [12 x i8] c"../symbol.c\00", align 1
@rb_cSymbol = external global i64, align 8
@rb_eTypeError = external global i64, align 8
@.str.6 = private unnamed_addr constant [41 x i8] c"wrong argument type %s (expected Symbol)\00", align 1
@ruby_single_main_ractor = external global ptr, align 8

; Function Attrs: inlinehint nounwind sspstrong willreturn memory(none) uwtable
define internal zeroext i1 @RB_IMMEDIATE_P(i64 noundef %0) #6 {
  %2 = alloca i64, align 8
  store i64 %0, ptr %2, align 8, !tbaa !11
  %3 = load i64, ptr %2, align 8, !tbaa !11
  %4 = and i64 %3, 7
  %5 = icmp ne i64 %4, 0
  ret i1 %5
}

; Function Attrs: inlinehint nounwind sspstrong uwtable
define internal zeroext i1 @rb_multi_ractor_p() #4 {
  %1 = alloca i1, align 1
  %2 = load ptr, ptr @ruby_single_main_ractor, align 8, !tbaa !94
  %3 = icmp ne ptr %2, null
  %4 = xor i1 %3, true
  %5 = xor i1 %4, true
  %6 = zext i1 %5 to i32
  %7 = sext i32 %6 to i64
  %8 = call i64 @llvm.expect.i64(i64 %7, i64 1)
  %9 = icmp ne i64 %8, 0
  br i1 %9, label %10, label %11

10:                                               ; preds = %0
  store i1 false, ptr %1, align 1
  br label %12

11:                                               ; preds = %0
  store i1 true, ptr %1, align 1
  br label %12

12:                                               ; preds = %11, %10
  %13 = load i1, ptr %1, align 1
  ret i1 %13
}

; Function Attrs: inlinehint nounwind sspstrong willreturn memory(read) uwtable
define internal i32 @RB_BUILTIN_TYPE(i64 noundef %0) #8 {
  %2 = alloca i64, align 8
  %3 = alloca i64, align 8
  store i64 %0, ptr %2, align 8, !tbaa !11
  call void @llvm.lifetime.start.p0(i64 8, ptr %3) #24
  %4 = load i64, ptr %2, align 8, !tbaa !11
  %5 = inttoptr i64 %4 to ptr
  %6 = getelementptr inbounds nuw %struct.RBasic, ptr %5, i32 0, i32 0
  %7 = load i64, ptr %6, align 8, !tbaa !93
  %8 = and i64 %7, 31
  store i64 %8, ptr %3, align 8, !tbaa !11
  %9 = load i64, ptr %3, align 8, !tbaa !11
  %10 = trunc i64 %9 to i32
  call void @llvm.lifetime.end.p0(i64 8, ptr %3) #24
  ret i32 %10
}

; Function Attrs: inlinehint nounwind sspstrong willreturn memory(none) uwtable
define internal zeroext i1 @RB_SPECIAL_CONST_P(i64 noundef %0) #6 {
  %2 = alloca i64, align 8
  store i64 %0, ptr %2, align 8, !tbaa !11
  %3 = load i64, ptr %2, align 8, !tbaa !11
  %4 = icmp eq i64 %3, 0
  br i1 %4, label %8, label %5

5:                                                ; preds = %1
  %6 = load i64, ptr %2, align 8, !tbaa !11
  %7 = call zeroext i1 @RB_IMMEDIATE_P(i64 noundef %6) #25
  br label %8

8:                                                ; preds = %5, %1
  %9 = phi i1 [ true, %1 ], [ %7, %5 ]
  ret i1 %9
}

; Function Attrs: inlinehint nounwind sspstrong uwtable
define internal void @rb_vm_lock_leave(ptr noundef %0, ptr noundef %1, i32 noundef %2) #4 {
  %4 = alloca ptr, align 8
  %5 = alloca ptr, align 8
  %6 = alloca i32, align 4
  store ptr %0, ptr %4, align 8, !tbaa !40
  store ptr %1, ptr %5, align 8, !tbaa !33
  store i32 %2, ptr %6, align 4, !tbaa !21
  %7 = call zeroext i1 @rb_multi_ractor_p()
  br i1 %7, label %8, label %10

8:                                                ; preds = %3
  %9 = load ptr, ptr %4, align 8, !tbaa !40
  call void @rb_vm_lock_leave_body(ptr noundef %9)
  br label %10

10:                                               ; preds = %8, %3
  ret void
}

; Function Attrs: inlinehint nounwind sspstrong uwtable
define internal i32 @rb_id_to_serial(i64 noundef %0) #4 {
  %2 = alloca i32, align 4
  %3 = alloca i64, align 8
  store i64 %0, ptr %3, align 8, !tbaa !11
  %4 = load i64, ptr %3, align 8, !tbaa !11
  %5 = icmp ugt i64 %4, 170
  br i1 %5, label %6, label %10

6:                                                ; preds = %1
  %7 = load i64, ptr %3, align 8, !tbaa !11
  %8 = lshr i64 %7, 4
  %9 = trunc i64 %8 to i32
  store i32 %9, ptr %2, align 4
  br label %13

10:                                               ; preds = %1
  %11 = load i64, ptr %3, align 8, !tbaa !11
  %12 = trunc i64 %11 to i32
  store i32 %12, ptr %2, align 4
  br label %13

13:                                               ; preds = %10, %6
  %14 = load i32, ptr %2, align 4
  ret i32 %14
}

; Function Attrs: nounwind sspstrong uwtable
define internal i64 @next_id_base_with_lock(ptr noundef %0) #0 {
  %2 = alloca ptr, align 8
  %3 = alloca i64, align 8
  %4 = alloca i32, align 4
  %5 = alloca i64, align 8
  store ptr %0, ptr %2, align 8, !tbaa !7
  call void @llvm.lifetime.start.p0(i64 8, ptr %3) #24
  call void @llvm.lifetime.start.p0(i64 4, ptr %4) #24
  %6 = load ptr, ptr %2, align 8, !tbaa !7
  %7 = getelementptr inbounds nuw %struct.rb_symbols_t, ptr %6, i32 0, i32 0
  %8 = load i32, ptr %7, align 8, !tbaa !56
  %9 = add i32 %8, 1
  store i32 %9, ptr %4, align 4, !tbaa !21
  %10 = load i32, ptr %4, align 4, !tbaa !21
  %11 = icmp eq i32 %10, 0
  br i1 %11, label %12, label %13

12:                                               ; preds = %1
  store i64 -1, ptr %3, align 8, !tbaa !11
  br label %21

13:                                               ; preds = %1
  call void @llvm.lifetime.start.p0(i64 8, ptr %5) #24
  %14 = load ptr, ptr %2, align 8, !tbaa !7
  %15 = getelementptr inbounds nuw %struct.rb_symbols_t, ptr %14, i32 0, i32 0
  %16 = load i32, ptr %15, align 8, !tbaa !56
  %17 = add i32 %16, 1
  store i32 %17, ptr %15, align 8, !tbaa !56
  %18 = zext i32 %17 to i64
  store i64 %18, ptr %5, align 8, !tbaa !11
  %19 = load i64, ptr %5, align 8, !tbaa !11
  %20 = shl i64 %19, 4
  store i64 %20, ptr %3, align 8, !tbaa !11
  call void @llvm.lifetime.end.p0(i64 8, ptr %5) #24
  br label %21

21:                                               ; preds = %13, %12
  %22 = load i64, ptr %3, align 8, !tbaa !11
  call void @llvm.lifetime.end.p0(i64 4, ptr %4) #24
  call void @llvm.lifetime.end.p0(i64 8, ptr %3) #24
  ret i64 %22
}

; Function Attrs: inlinehint nounwind sspstrong uwtable
define internal i64 @dsymbol_check(ptr noundef %0, i64 noundef %1) #4 {
  %3 = alloca i64, align 8
  %4 = alloca ptr, align 8
  %5 = alloca i64, align 8
  %6 = alloca i64, align 8
  %7 = alloca i64, align 8
  store ptr %0, ptr %4, align 8, !tbaa !7
  store i64 %1, ptr %5, align 8, !tbaa !11
  %8 = load i64, ptr %5, align 8, !tbaa !11
  %9 = call i32 @rb_objspace_garbage_object_p(i64 noundef %8)
  %10 = icmp ne i32 %9, 0
  %11 = xor i1 %10, true
  %12 = xor i1 %11, true
  %13 = zext i1 %12 to i32
  %14 = sext i32 %13 to i64
  %15 = call i64 @llvm.expect.i64(i64 %14, i64 0)
  %16 = icmp ne i64 %15, 0
  br i1 %16, label %17, label %40

17:                                               ; preds = %2
  call void @llvm.lifetime.start.p0(i64 8, ptr %6) #24
  %18 = load i64, ptr %5, align 8, !tbaa !11
  %19 = inttoptr i64 %18 to ptr
  %20 = getelementptr inbounds nuw %struct.RSymbol, ptr %19, i32 0, i32 2
  %21 = load i64, ptr %20, align 8, !tbaa !32
  store i64 %21, ptr %6, align 8, !tbaa !11
  call void @llvm.lifetime.start.p0(i64 8, ptr %7) #24
  %22 = load i64, ptr %5, align 8, !tbaa !11
  %23 = inttoptr i64 %22 to ptr
  %24 = getelementptr inbounds nuw %struct.RSymbol, ptr %23, i32 0, i32 3
  %25 = load i64, ptr %24, align 8, !tbaa !29
  %26 = and i64 %25, 14
  store i64 %26, ptr %7, align 8, !tbaa !11
  %27 = load i64, ptr %5, align 8, !tbaa !11
  %28 = inttoptr i64 %27 to ptr
  %29 = getelementptr inbounds nuw %struct.RSymbol, ptr %28, i32 0, i32 2
  store i64 0, ptr %29, align 8, !tbaa !32
  %30 = load ptr, ptr %4, align 8, !tbaa !7
  %31 = load i64, ptr %6, align 8, !tbaa !11
  %32 = load i64, ptr %5, align 8, !tbaa !11
  call void @unregister_sym(ptr noundef %30, i64 noundef %31, i64 noundef %32)
  %33 = load ptr, ptr %4, align 8, !tbaa !7
  %34 = load i64, ptr @rb_cSymbol, align 8, !tbaa !11
  %35 = load i64, ptr %6, align 8, !tbaa !11
  %36 = load i64, ptr %6, align 8, !tbaa !11
  %37 = call ptr @rb_enc_get(i64 noundef %36)
  %38 = load i64, ptr %7, align 8, !tbaa !11
  %39 = call i64 @dsymbol_alloc(ptr noundef %33, i64 noundef %34, i64 noundef %35, ptr noundef %37, i64 noundef %38)
  store i64 %39, ptr %3, align 8
  call void @llvm.lifetime.end.p0(i64 8, ptr %7) #24
  call void @llvm.lifetime.end.p0(i64 8, ptr %6) #24
  br label %42

40:                                               ; preds = %2
  %41 = load i64, ptr %5, align 8, !tbaa !11
  store i64 %41, ptr %3, align 8
  br label %42

42:                                               ; preds = %40, %17
  %43 = load i64, ptr %3, align 8
  ret i64 %43
}

; Function Attrs: inlinehint nounwind sspstrong uwtable
define internal void @rb_vm_lock_enter(ptr noundef %0, ptr noundef %1, i32 noundef %2) #4 {
  %4 = alloca ptr, align 8
  %5 = alloca ptr, align 8
  %6 = alloca i32, align 4
  store ptr %0, ptr %4, align 8, !tbaa !40
  store ptr %1, ptr %5, align 8, !tbaa !33
  store i32 %2, ptr %6, align 4, !tbaa !21
  %7 = call zeroext i1 @rb_multi_ractor_p()
  br i1 %7, label %8, label %10

8:                                                ; preds = %3
  %9 = load ptr, ptr %4, align 8, !tbaa !40
  call void @rb_vm_lock_enter_body(ptr noundef %9)
  br label %10

10:                                               ; preds = %8, %3
  ret void
}

; Function Attrs: inlinehint nounwind sspstrong willreturn memory(read) uwtable
define internal zeroext i1 @RB_DYNAMIC_SYM_P(i64 noundef %0) #8 {
  %2 = alloca i1, align 1
  %3 = alloca i64, align 8
  store i64 %0, ptr %3, align 8, !tbaa !11
  %4 = load i64, ptr %3, align 8, !tbaa !11
  %5 = call zeroext i1 @RB_SPECIAL_CONST_P(i64 noundef %4) #25
  br i1 %5, label %6, label %7

6:                                                ; preds = %1
  store i1 false, ptr %2, align 1
  br label %11

7:                                                ; preds = %1
  %8 = load i64, ptr %3, align 8, !tbaa !11
  %9 = call i32 @RB_BUILTIN_TYPE(i64 noundef %8) #27
  %10 = icmp eq i32 %9, 20
  store i1 %10, ptr %2, align 1
  br label %11

11:                                               ; preds = %7, %6
  %12 = load i1, ptr %2, align 1
  ret i1 %12
}

; Function Attrs: inlinehint nounwind sspstrong willreturn memory(none) uwtable
define internal zeroext i1 @RB_STATIC_SYM_P(i64 noundef %0) #6 {
  %2 = alloca i64, align 8
  %3 = alloca i64, align 8
  store i64 %0, ptr %2, align 8, !tbaa !11
  call void @llvm.lifetime.start.p0(i64 8, ptr %3) #24
  store i64 255, ptr %3, align 8, !tbaa !11
  %4 = load i64, ptr %2, align 8, !tbaa !11
  %5 = and i64 %4, 255
  %6 = icmp eq i64 %5, 12
  call void @llvm.lifetime.end.p0(i64 8, ptr %3) #24
  ret i1 %6
}

; Function Attrs: nounwind sspstrong uwtable
define dso_local i64 @rb_sym2id(i64 noundef %0) #0 {
  %2 = alloca i64, align 8
  %3 = alloca i64, align 8
  %4 = alloca ptr, align 8
  %5 = alloca i32, align 4
  %6 = alloca i64, align 8
  %7 = alloca i64, align 8
  store i64 %0, ptr %2, align 8, !tbaa !11
  call void @llvm.lifetime.start.p0(i64 8, ptr %3) #24
  %8 = load i64, ptr %2, align 8, !tbaa !11
  %9 = call zeroext i1 @RB_STATIC_SYM_P(i64 noundef %8) #25
  br i1 %9, label %10, label %13

10:                                               ; preds = %1
  %11 = load i64, ptr %2, align 8, !tbaa !11
  %12 = lshr i64 %11, 8
  store i64 %12, ptr %3, align 8, !tbaa !11
  br label %63

13:                                               ; preds = %1
  %14 = load i64, ptr %2, align 8, !tbaa !11
  %15 = call zeroext i1 @RB_DYNAMIC_SYM_P(i64 noundef %14) #27
  br i1 %15, label %16, label %58

16:                                               ; preds = %13
  call void @llvm.lifetime.start.p0(i64 8, ptr %4) #24
  store ptr @ruby_global_symbols, ptr %4, align 8, !tbaa !7
  call void @llvm.lifetime.start.p0(i64 4, ptr %5) #24
  call void @rb_vm_lock_enter(ptr noundef %5, ptr noundef @.str.5, i32 noundef 940)
  %17 = load ptr, ptr %4, align 8, !tbaa !7
  %18 = load i64, ptr %2, align 8, !tbaa !11
  %19 = call i64 @dsymbol_check(ptr noundef %17, i64 noundef %18)
  store i64 %19, ptr %2, align 8, !tbaa !11
  %20 = load i64, ptr %2, align 8, !tbaa !11
  %21 = inttoptr i64 %20 to ptr
  %22 = getelementptr inbounds nuw %struct.RSymbol, ptr %21, i32 0, i32 3
  %23 = load i64, ptr %22, align 8, !tbaa !29
  store i64 %23, ptr %3, align 8, !tbaa !11
  %24 = load i64, ptr %3, align 8, !tbaa !11
  %25 = and i64 %24, -15
  %26 = icmp ne i64 %25, 0
  %27 = xor i1 %26, true
  %28 = xor i1 %27, true
  %29 = xor i1 %28, true
  %30 = zext i1 %29 to i32
  %31 = sext i32 %30 to i64
  %32 = call i64 @llvm.expect.i64(i64 %31, i64 0)
  %33 = icmp ne i64 %32, 0
  br i1 %33, label %34, label %57

34:                                               ; preds = %16
  call void @llvm.lifetime.start.p0(i64 8, ptr %6) #24
  %35 = load i64, ptr %2, align 8, !tbaa !11
  %36 = inttoptr i64 %35 to ptr
  %37 = getelementptr inbounds nuw %struct.RSymbol, ptr %36, i32 0, i32 2
  %38 = load i64, ptr %37, align 8, !tbaa !32
  store i64 %38, ptr %6, align 8, !tbaa !11
  call void @llvm.lifetime.start.p0(i64 8, ptr %7) #24
  %39 = load ptr, ptr %4, align 8, !tbaa !7
  %40 = call i64 @next_id_base_with_lock(ptr noundef %39)
  store i64 %40, ptr %7, align 8, !tbaa !11
  %41 = load i64, ptr %7, align 8, !tbaa !11
  %42 = load i64, ptr %3, align 8, !tbaa !11
  %43 = or i64 %42, %41
  store i64 %43, ptr %3, align 8, !tbaa !11
  %44 = load i64, ptr %2, align 8, !tbaa !11
  %45 = inttoptr i64 %44 to ptr
  %46 = getelementptr inbounds nuw %struct.RSymbol, ptr %45, i32 0, i32 3
  store i64 %43, ptr %46, align 8, !tbaa !29
  %47 = load ptr, ptr %4, align 8, !tbaa !7
  %48 = load i64, ptr %7, align 8, !tbaa !11
  %49 = call i32 @rb_id_to_serial(i64 noundef %48)
  %50 = load i64, ptr %6, align 8, !tbaa !11
  %51 = load i64, ptr %2, align 8, !tbaa !11
  call void @set_id_entry(ptr noundef %47, i32 noundef %49, i64 noundef %50, i64 noundef %51)
  %52 = load ptr, ptr %4, align 8, !tbaa !7
  %53 = getelementptr inbounds nuw %struct.rb_symbols_t, ptr %52, i32 0, i32 3
  %54 = load i64, ptr %53, align 8, !tbaa !13
  %55 = load i64, ptr %6, align 8, !tbaa !11
  %56 = call i64 @rb_hash_delete_entry(i64 noundef %54, i64 noundef %55)
  call void @llvm.lifetime.end.p0(i64 8, ptr %7) #24
  call void @llvm.lifetime.end.p0(i64 8, ptr %6) #24
  br label %57

57:                                               ; preds = %34, %16
  call void @rb_vm_lock_leave(ptr noundef %5, ptr noundef @.str.5, i32 noundef 956)
  call void @llvm.lifetime.end.p0(i64 4, ptr %5) #24
  call void @llvm.lifetime.end.p0(i64 8, ptr %4) #24
  br label %62

58:                                               ; preds = %13
  %59 = load i64, ptr @rb_eTypeError, align 8, !tbaa !11
  %60 = load i64, ptr %2, align 8, !tbaa !11
  %61 = call ptr @rb_builtin_class_name(i64 noundef %60)
  call void (i64, ptr, ...) @rb_raise(i64 noundef %59, ptr noundef @.str.6, ptr noundef %61) #26
  unreachable

62:                                               ; preds = %57
  br label %63

63:                                               ; preds = %62, %10
  %64 = load i64, ptr %3, align 8, !tbaa !11
  call void @llvm.lifetime.end.p0(i64 8, ptr %3) #24
  ret i64 %64
}