; Function Attrs: nounwind sspstrong uwtable
define dso_local i64 @rb_sym2id(i64 noundef %0) local_unnamed_addr #0 {
  %2 = alloca i32, align 4
  %3 = and i64 %0, 255
  %4 = icmp eq i64 %3, 12
  br i1 %4, label %5, label %7

5:                                                ; preds = %1
  %6 = lshr i64 %0, 8
  br label %51

7:                                                ; preds = %1
  %8 = icmp eq i64 %0, 0
  %9 = and i64 %0, 7
  %10 = icmp ne i64 %9, 0
  %11 = or i1 %8, %10
  br i1 %11, label %RB_DYNAMIC_SYM_P.exit.thread, label %RB_DYNAMIC_SYM_P.exit

RB_DYNAMIC_SYM_P.exit:                            ; preds = %7
  %12 = inttoptr i64 %0 to ptr
  %13 = load i64, ptr %12, align 8, !tbaa !26
  %14 = and i64 %13, 31
  %15 = icmp eq i64 %14, 20
  br i1 %15, label %16, label %RB_DYNAMIC_SYM_P.exit.thread

16:                                               ; preds = %RB_DYNAMIC_SYM_P.exit
  call void @llvm.lifetime.start.p0(i64 4, ptr nonnull %2) #19
  %17 = load ptr, ptr @ruby_single_main_ractor, align 8, !tbaa !24
  %.not.i.i = icmp eq ptr %17, null
  br i1 %.not.i.i, label %18, label %rb_vm_lock_enter.exit

18:                                               ; preds = %16
  call void @rb_vm_lock_enter_body(ptr noundef nonnull %2) #19
  br label %rb_vm_lock_enter.exit

rb_vm_lock_enter.exit:                            ; preds = %16, %18
  %19 = call i32 @rb_objspace_garbage_object_p(i64 noundef %0) #19
  %.not.i = icmp eq i32 %19, 0
  br i1 %.not.i, label %dsymbol_check.exit, label %20, !prof !28

20:                                               ; preds = %rb_vm_lock_enter.exit
  %21 = getelementptr inbounds nuw i8, ptr %12, i64 24
  %22 = load i64, ptr %21, align 8, !tbaa !29
  %23 = getelementptr inbounds nuw i8, ptr %12, i64 32
  %24 = load i64, ptr %23, align 8, !tbaa !31
  %25 = and i64 %24, 14
  store i64 0, ptr %21, align 8, !tbaa !29
  call fastcc void @unregister_sym(i64 noundef %22, i64 noundef %0)
  %26 = load i64, ptr @rb_cSymbol, align 8, !tbaa !32
  %27 = call ptr @rb_enc_get(i64 noundef %22) #19
  %28 = call fastcc i64 @dsymbol_alloc(i64 noundef %26, i64 noundef %22, ptr noundef %27, i64 noundef %25)
  %.pre = inttoptr i64 %28 to ptr
  br label %dsymbol_check.exit

dsymbol_check.exit:                               ; preds = %rb_vm_lock_enter.exit, %20
  %.pre-phi = phi ptr [ %12, %rb_vm_lock_enter.exit ], [ %.pre, %20 ]
  %.0.i19 = phi i64 [ %0, %rb_vm_lock_enter.exit ], [ %28, %20 ]
  %29 = getelementptr inbounds nuw i8, ptr %.pre-phi, i64 32
  %30 = load i64, ptr %29, align 8, !tbaa !31
  %31 = and i64 %30, -15
  %.not = icmp eq i64 %31, 0
  br i1 %.not, label %32, label %46, !prof !33

32:                                               ; preds = %dsymbol_check.exit
  %33 = getelementptr inbounds nuw i8, ptr %.pre-phi, i64 24
  %34 = load i64, ptr %33, align 8, !tbaa !29
  %35 = load i32, ptr @ruby_global_symbols, align 8, !tbaa !34
  %.fr26 = freeze i32 %35
  %36 = add i32 %.fr26, 1
  %37 = icmp eq i32 %36, 0
  br i1 %37, label %next_id_base_with_lock.exit.thread, label %next_id_base_with_lock.exit

next_id_base_with_lock.exit:                      ; preds = %32
  store i32 %36, ptr @ruby_global_symbols, align 8, !tbaa !34
  %38 = zext i32 %36 to i64
  %39 = shl nuw nsw i64 %38, 4
  %40 = or disjoint i64 %39, %30
  %41 = icmp ugt i32 %36, 10
  %42 = trunc i64 %39 to i32
  %43 = select i1 %41, i32 %36, i32 %42
  br label %next_id_base_with_lock.exit.thread

next_id_base_with_lock.exit.thread:               ; preds = %32, %next_id_base_with_lock.exit
  %.sink = phi i64 [ %40, %next_id_base_with_lock.exit ], [ -1, %32 ]
  %.0.i21 = phi i32 [ %43, %next_id_base_with_lock.exit ], [ -1, %32 ]
  store i64 %.sink, ptr %29, align 8, !tbaa !31
  call fastcc void @set_id_entry(i32 noundef %.0.i21, i64 noundef %34, i64 noundef %.0.i19)
  %44 = load i64, ptr getelementptr inbounds nuw (i8, ptr @ruby_global_symbols, i64 24), align 8, !tbaa !7
  %45 = call i64 @rb_hash_delete_entry(i64 noundef %44, i64 noundef %34) #19
  br label %46

46:                                               ; preds = %next_id_base_with_lock.exit.thread, %dsymbol_check.exit
  %.1 = phi i64 [ %.sink, %next_id_base_with_lock.exit.thread ], [ %30, %dsymbol_check.exit ]
  %47 = load ptr, ptr @ruby_single_main_ractor, align 8, !tbaa !24
  %.not.i.i22 = icmp eq ptr %47, null
  br i1 %.not.i.i22, label %48, label %rb_vm_lock_leave.exit

48:                                               ; preds = %46
  call void @rb_vm_lock_leave_body(ptr noundef nonnull %2) #19
  br label %rb_vm_lock_leave.exit

rb_vm_lock_leave.exit:                            ; preds = %46, %48
  call void @llvm.lifetime.end.p0(i64 4, ptr nonnull %2) #19
  br label %51

RB_DYNAMIC_SYM_P.exit.thread:                     ; preds = %7, %RB_DYNAMIC_SYM_P.exit
  %49 = load i64, ptr @rb_eTypeError, align 8, !tbaa !32
  %50 = tail call ptr @rb_builtin_class_name(i64 noundef %0) #19
  tail call void (i64, ptr, ...) @rb_raise(i64 noundef %49, ptr noundef nonnull @.str.6, ptr noundef %50) #20
  unreachable

51:                                               ; preds = %rb_vm_lock_leave.exit, %5
  %.0 = phi i64 [ %6, %5 ], [ %.1, %rb_vm_lock_leave.exit ]
  ret i64 %.0
}